target datalayout = "e-m:e-p270:32:32-p271:32:32-p272:64:64-i64:64-i128:128-f80:128-n8:16:32:64-S128"
target triple = "x86_64-pc-linux-gnu"

%struct.pmix_class_t = type { ptr, ptr, ptr, ptr, i32, i32, ptr, ptr, i64 }
%struct.pmix_list_t = type { %struct.pmix_object_t, %struct.pmix_list_item_t, i64 }
%struct.pmix_object_t = type { %union.pthread_mutex_t, ptr, i32, %struct.pmix_tma }
%union.pthread_mutex_t = type { %struct.__pthread_mutex_s }
%struct.__pthread_mutex_s = type { i32, i32, i32, i32, i32, i16, i16, %struct.__pthread_internal_list }
%struct.__pthread_internal_list = type { ptr, ptr }
%struct.pmix_tma = type { ptr, ptr, ptr, ptr, ptr, ptr, ptr, ptr }
%struct.pmix_list_item_t = type { %struct.pmix_object_t, ptr, ptr, i32 }
%struct.event = type { %struct.event_callback, %union.anon.0, i32, ptr, %union.anon.2, i16, i16, %struct.timeval }
%struct.event_callback = type { %struct.anon, i16, i8, i8, %union.anon, ptr }
%struct.anon = type { ptr, ptr }
%union.anon = type { ptr }
%union.anon.0 = type { %struct.anon.1 }
%struct.anon.1 = type { ptr, ptr }
%union.anon.2 = type { %struct.anon.3 }
%struct.anon.3 = type { %struct.anon.4, %struct.timeval }
%struct.anon.4 = type { ptr, ptr }
%struct.timeval = type { i64, i64 }
%struct.prte_filem_raw_incoming_t = type { %struct.pmix_list_item_t, i32, %struct.event, i8, i32, ptr, ptr, ptr, i32, ptr, %struct.pmix_list_t }

@pmix_class_init_epoch = external global i32, align 4
@pmix_list_t_class = external global %struct.pmix_class_t, align 8

; Function Attrs: inlinehint nounwind uwtable
define internal void @pmix_obj_run_constructors(ptr noundef %0) #2 {
  %2 = alloca ptr, align 8
  %3 = alloca ptr, align 8
  store ptr %0, ptr %2, align 8, !tbaa !31
  call void @llvm.lifetime.start.p0(i64 8, ptr %3) #13
  %4 = load ptr, ptr %2, align 8, !tbaa !31
  %5 = getelementptr inbounds nuw %struct.pmix_object_t, ptr %4, i32 0, i32 1
  %6 = load ptr, ptr %5, align 8, !tbaa !13
  %7 = getelementptr inbounds nuw %struct.pmix_class_t, ptr %6, i32 0, i32 6
  %8 = load ptr, ptr %7, align 8, !tbaa !139
  store ptr %8, ptr %3, align 8, !tbaa !38
  br label %9

9:                                                ; preds = %13, %1
  %10 = load ptr, ptr %3, align 8, !tbaa !38
  %11 = load ptr, ptr %10, align 8, !tbaa !38
  %12 = icmp ne ptr null, %11
  br i1 %12, label %13, label %19

13:                                               ; preds = %9
  %14 = load ptr, ptr %3, align 8, !tbaa !38
  %15 = load ptr, ptr %14, align 8, !tbaa !38
  %16 = load ptr, ptr %2, align 8, !tbaa !31
  call void %15(ptr noundef %16)
  %17 = load ptr, ptr %3, align 8, !tbaa !38
  %18 = getelementptr inbounds nuw ptr, ptr %17, i32 1
  store ptr %18, ptr %3, align 8, !tbaa !38
  br label %9, !llvm.loop !140

19:                                               ; preds = %9
  call void @llvm.lifetime.end.p0(i64 8, ptr %3) #13
  ret void
}

; Function Attrs: inlinehint nounwind uwtable
define internal void @pmix_obj_construct_tma(ptr noundef %0, ptr noundef %1) #2 {
  %3 = alloca ptr, align 8
  %4 = alloca ptr, align 8
  store ptr %0, ptr %3, align 8, !tbaa !31
  store ptr %1, ptr %4, align 8, !tbaa !129
  %5 = load ptr, ptr %4, align 8, !tbaa !129
  %6 = icmp eq ptr null, %5
  br i1 %6, label %7, label %32

7:                                                ; preds = %2
  %8 = load ptr, ptr %3, align 8, !tbaa !31
  %9 = getelementptr inbounds nuw %struct.pmix_object_t, ptr %8, i32 0, i32 3
  %10 = getelementptr inbounds nuw %struct.pmix_tma, ptr %9, i32 0, i32 0
  store ptr null, ptr %10, align 8, !tbaa !131
  %11 = load ptr, ptr %3, align 8, !tbaa !31
  %12 = getelementptr inbounds nuw %struct.pmix_object_t, ptr %11, i32 0, i32 3
  %13 = getelementptr inbounds nuw %struct.pmix_tma, ptr %12, i32 0, i32 1
  store ptr null, ptr %13, align 8, !tbaa !132
  %14 = load ptr, ptr %3, align 8, !tbaa !31
  %15 = getelementptr inbounds nuw %struct.pmix_object_t, ptr %14, i32 0, i32 3
  %16 = getelementptr inbounds nuw %struct.pmix_tma, ptr %15, i32 0, i32 2
  store ptr null, ptr %16, align 8, !tbaa !133
  %17 = load ptr, ptr %3, align 8, !tbaa !31
  %18 = getelementptr inbounds nuw %struct.pmix_object_t, ptr %17, i32 0, i32 3
  %19 = getelementptr inbounds nuw %struct.pmix_tma, ptr %18, i32 0, i32 3
  store ptr null, ptr %19, align 8, !tbaa !134
  %20 = load ptr, ptr %3, align 8, !tbaa !31
  %21 = getelementptr inbounds nuw %struct.pmix_object_t, ptr %20, i32 0, i32 3
  %22 = getelementptr inbounds nuw %struct.pmix_tma, ptr %21, i32 0, i32 4
  store ptr null, ptr %22, align 8, !tbaa !135
  %23 = load ptr, ptr %3, align 8, !tbaa !31
  %24 = getelementptr inbounds nuw %struct.pmix_object_t, ptr %23, i32 0, i32 3
  %25 = getelementptr inbounds nuw %struct.pmix_tma, ptr %24, i32 0, i32 5
  store ptr null, ptr %25, align 8, !tbaa !33
  %26 = load ptr, ptr %3, align 8, !tbaa !31
  %27 = getelementptr inbounds nuw %struct.pmix_object_t, ptr %26, i32 0, i32 3
  %28 = getelementptr inbounds nuw %struct.pmix_tma, ptr %27, i32 0, i32 6
  store ptr null, ptr %28, align 8, !tbaa !136
  %29 = load ptr, ptr %3, align 8, !tbaa !31
  %30 = getelementptr inbounds nuw %struct.pmix_object_t, ptr %29, i32 0, i32 3
  %31 = getelementptr inbounds nuw %struct.pmix_tma, ptr %30, i32 0, i32 7
  store ptr null, ptr %31, align 8, !tbaa !137
  br label %36

32:                                               ; preds = %2
  %33 = load ptr, ptr %3, align 8, !tbaa !31
  %34 = getelementptr inbounds nuw %struct.pmix_object_t, ptr %33, i32 0, i32 3
  %35 = load ptr, ptr %4, align 8, !tbaa !129
  call void @llvm.memcpy.p0.p0.i64(ptr align 8 %34, ptr align 8 %35, i64 64, i1 false), !tbaa.struct !138
  br label %36

36:                                               ; preds = %32, %7
  ret void
}

; Function Attrs: nounwind uwtable
define internal void @in_construct(ptr noundef %0) #0 {
  %2 = alloca ptr, align 8
  store ptr %0, ptr %2, align 8, !tbaa !38
  %3 = load ptr, ptr %2, align 8, !tbaa !38
  %4 = getelementptr inbounds nuw %struct.prte_filem_raw_incoming_t, ptr %3, i32 0, i32 1
  store i32 0, ptr %4, align 8, !tbaa !121
  %5 = load ptr, ptr %2, align 8, !tbaa !38
  %6 = getelementptr inbounds nuw %struct.prte_filem_raw_incoming_t, ptr %5, i32 0, i32 3
  store i8 0, ptr %6, align 8, !tbaa !122
  %7 = load ptr, ptr %2, align 8, !tbaa !38
  %8 = getelementptr inbounds nuw %struct.prte_filem_raw_incoming_t, ptr %7, i32 0, i32 4
  store i32 -1, ptr %8, align 4, !tbaa !123
  %9 = load ptr, ptr %2, align 8, !tbaa !38
  %10 = getelementptr inbounds nuw %struct.prte_filem_raw_incoming_t, ptr %9, i32 0, i32 5
  store ptr null, ptr %10, align 8, !tbaa !108
  %11 = load ptr, ptr %2, align 8, !tbaa !38
  %12 = getelementptr inbounds nuw %struct.prte_filem_raw_incoming_t, ptr %11, i32 0, i32 6
  store ptr null, ptr %12, align 8, !tbaa !124
  %13 = load ptr, ptr %2, align 8, !tbaa !38
  %14 = getelementptr inbounds nuw %struct.prte_filem_raw_incoming_t, ptr %13, i32 0, i32 7
  store ptr null, ptr %14, align 8, !tbaa !125
  %15 = load ptr, ptr %2, align 8, !tbaa !38
  %16 = getelementptr inbounds nuw %struct.prte_filem_raw_incoming_t, ptr %15, i32 0, i32 9
  store ptr null, ptr %16, align 8, !tbaa !110
  br label %17

17:                                               ; preds = %1
  br label %18

18:                                               ; preds = %17
  br label %19

19:                                               ; preds = %18
  %20 = load i32, ptr @pmix_class_init_epoch, align 4, !tbaa !3
  %21 = load i32, ptr getelementptr inbounds nuw (%struct.pmix_class_t, ptr @pmix_list_t_class, i32 0, i32 4), align 8, !tbaa !7
  %22 = icmp ne i32 %20, %21
  br i1 %22, label %23, label %24

23:                                               ; preds = %19
  call void @pmix_class_initialize(ptr noundef @pmix_list_t_class)
  br label %24

24:                                               ; preds = %23, %19
  %25 = load ptr, ptr %2, align 8, !tbaa !38
  %26 = getelementptr inbounds nuw %struct.prte_filem_raw_incoming_t, ptr %25, i32 0, i32 10
  %27 = getelementptr inbounds nuw %struct.pmix_object_t, ptr %26, i32 0, i32 1
  store ptr @pmix_list_t_class, ptr %27, align 8, !tbaa !13
  %28 = load ptr, ptr %2, align 8, !tbaa !38
  %29 = getelementptr inbounds nuw %struct.prte_filem_raw_incoming_t, ptr %28, i32 0, i32 10
  %30 = getelementptr inbounds nuw %struct.pmix_object_t, ptr %29, i32 0, i32 2
  store i32 1, ptr %30, align 8, !tbaa !16
  %31 = load ptr, ptr %2, align 8, !tbaa !38
  %32 = getelementptr inbounds nuw %struct.prte_filem_raw_incoming_t, ptr %31, i32 0, i32 10
  call void @pmix_obj_construct_tma(ptr noundef %32, ptr noundef null)
  %33 = load ptr, ptr %2, align 8, !tbaa !38
  %34 = getelementptr inbounds nuw %struct.prte_filem_raw_incoming_t, ptr %33, i32 0, i32 10
  call void @pmix_obj_run_constructors(ptr noundef %34)
  br label %35

35:                                               ; preds = %24
  br label %36

36:                                               ; preds = %35
  br label %37

37:                                               ; preds = %36
  ret void
}