; Function Attrs: nounwind uwtable
define internal void @in_construct(ptr noundef initializes((144, 148), (280, 281), (284, 312), (320, 328), (368, 380), (384, 448)) %0) #0 {
  %2 = getelementptr inbounds nuw i8, ptr %0, i64 144
  store i32 0, ptr %2, align 8, !tbaa !123
  %3 = getelementptr inbounds nuw i8, ptr %0, i64 280
  store i8 0, ptr %3, align 8, !tbaa !124
  %4 = getelementptr inbounds nuw i8, ptr %0, i64 284
  store i32 -1, ptr %4, align 4, !tbaa !125
  %5 = getelementptr inbounds nuw i8, ptr %0, i64 288
  %6 = getelementptr inbounds nuw i8, ptr %0, i64 320
  store ptr null, ptr %6, align 8, !tbaa !113
  tail call void @llvm.memset.p0.i64(ptr noundef nonnull align 8 dereferenceable(24) %5, i8 0, i64 24, i1 false)
  %7 = load i32, ptr @pmix_class_init_epoch, align 4, !tbaa !3
  %8 = load i32, ptr getelementptr inbounds nuw (i8, ptr @pmix_list_t_class, i64 32), align 8, !tbaa !7
  %.not = icmp eq i32 %7, %8
  br i1 %.not, label %10, label %9

9:                                                ; preds = %1
  tail call void @pmix_class_initialize(ptr noundef nonnull @pmix_list_t_class) #16
  br label %10

10:                                               ; preds = %9, %1
  %11 = getelementptr inbounds nuw i8, ptr %0, i64 328
  %12 = getelementptr inbounds nuw i8, ptr %0, i64 368
  store ptr @pmix_list_t_class, ptr %12, align 8, !tbaa !13
  %13 = getelementptr inbounds nuw i8, ptr %0, i64 376
  store i32 1, ptr %13, align 8, !tbaa !16
  %14 = getelementptr inbounds nuw i8, ptr %0, i64 384
  tail call void @llvm.memset.p0.i64(ptr noundef nonnull align 8 dereferenceable(64) %14, i8 0, i64 64, i1 false)
  %15 = load ptr, ptr getelementptr inbounds nuw (i8, ptr @pmix_list_t_class, i64 40), align 8, !tbaa !17
  %16 = load ptr, ptr %15, align 8, !tbaa !18
  %.not6.i = icmp eq ptr %16, null
  br i1 %.not6.i, label %pmix_obj_run_constructors.exit, label %.lr.ph.i

.lr.ph.i:                                         ; preds = %10, %.lr.ph.i
  %17 = phi ptr [ %19, %.lr.ph.i ], [ %16, %10 ]
  %.07.i = phi ptr [ %18, %.lr.ph.i ], [ %15, %10 ]
  tail call void %17(ptr noundef nonnull %11) #16
  %18 = getelementptr inbounds nuw i8, ptr %.07.i, i64 8
  %19 = load ptr, ptr %18, align 8, !tbaa !18
  %.not.i = icmp eq ptr %19, null
  br i1 %.not.i, label %pmix_obj_run_constructors.exit, label %.lr.ph.i, !llvm.loop !19

pmix_obj_run_constructors.exit:                   ; preds = %.lr.ph.i, %10
  ret void
}